; ModuleID = 'source-C-CXX/11/281.cpp'
source_filename = "source-C-CXX/11/281.cpp"
target datalayout = "e-m:e-p270:32:32-p271:32:32-p272:64:64-i64:64-f80:128-n8:16:32:64-S128"
target triple = "x86_64-pc-linux-gnu"

%"class.std::ios_base::Init" = type { i8 }
%"class.std::basic_istream" = type { i32 (...)**, i64, %"class.std::basic_ios" }
%"class.std::basic_ios" = type { %"class.std::ios_base", %"class.std::basic_ostream"*, i8, i8, %"class.std::basic_streambuf"*, %"class.std::ctype"*, %"class.std::num_put"*, %"class.std::num_get"* }
%"class.std::ios_base" = type { i32 (...)**, i64, i64, i32, i32, i32, %"struct.std::ios_base::_Callback_list"*, %"struct.std::ios_base::_Words", [8 x %"struct.std::ios_base::_Words"], i32, %"struct.std::ios_base::_Words"*, %"class.std::locale" }
%"struct.std::ios_base::_Callback_list" = type { %"struct.std::ios_base::_Callback_list"*, void (i32, %"class.std::ios_base"*, i32)*, i32, i32 }
%"struct.std::ios_base::_Words" = type { i8*, i64 }
%"class.std::locale" = type { %"class.std::locale::_Impl"* }
%"class.std::locale::_Impl" = type { i32, %"class.std::locale::facet"**, i64, %"class.std::locale::facet"**, i8** }
%"class.std::locale::facet" = type <{ i32 (...)**, i32, [4 x i8] }>
%"class.std::basic_ostream" = type { i32 (...)**, %"class.std::basic_ios" }
%"class.std::basic_streambuf" = type { i32 (...)**, i8*, i8*, i8*, i8*, i8*, i8*, %"class.std::locale" }
%"class.std::ctype" = type <{ %"class.std::locale::facet.base", [4 x i8], %struct.__locale_struct*, i8, [7 x i8], i32*, i32*, i16*, i8, [256 x i8], [256 x i8], i8, [6 x i8] }>
%"class.std::locale::facet.base" = type <{ i32 (...)**, i32 }>
%struct.__locale_struct = type { [13 x %struct.__locale_data*], i16*, i32*, i32*, [13 x i8*] }
%struct.__locale_data = type opaque
%"class.std::num_put" = type { %"class.std::locale::facet.base", [4 x i8] }
%"class.std::num_get" = type { %"class.std::locale::facet.base", [4 x i8] }

@_ZStL8__ioinit = internal global %"class.std::ios_base::Init" zeroinitializer, align 1
@__dso_handle = external hidden global i8
@_ZSt3cin = external global %"class.std::basic_istream", align 8
@_ZSt4cout = external global %"class.std::basic_ostream", align 8
@llvm.global_ctors = appending global [1 x { i32, void ()*, i8* }] [{ i32, void ()*, i8* } { i32 65535, void ()* @_GLOBAL__sub_I_281.cpp, i8* null }]

declare void @_ZNSt8ios_base4InitC1Ev(%"class.std::ios_base::Init"* nonnull align 1 dereferenceable(1)) unnamed_addr #0

; Function Attrs: nounwind
declare void @_ZNSt8ios_base4InitD1Ev(%"class.std::ios_base::Init"* nonnull align 1 dereferenceable(1)) unnamed_addr #1

; Function Attrs: nofree nounwind
declare i32 @__cxa_atexit(void (i8*)*, i8*, i8*) local_unnamed_addr #2

; Function Attrs: mustprogress norecurse sspstrong uwtable
define dso_local i32 @main() local_unnamed_addr #3 {
  %1 = alloca i32, align 4
  %2 = alloca [16 x i32], align 16
  %3 = bitcast i32* %1 to i8*
  call void @llvm.lifetime.start.p0i8(i64 4, i8* nonnull %3) #9
  %4 = bitcast [16 x i32]* %2 to i8*
  call void @llvm.lifetime.start.p0i8(i64 64, i8* nonnull %4) #9
  call void @llvm.memset.p0i8.i64(i8* noundef nonnull align 16 dereferenceable(64) %4, i8 0, i64 64, i1 false)
  br label %5

5:                                                ; preds = %180, %0
  %6 = call nonnull align 8 dereferenceable(16) %"class.std::basic_istream"* @_ZNSirsERi(%"class.std::basic_istream"* nonnull align 8 dereferenceable(16) @_ZSt3cin, i32* nonnull align 4 dereferenceable(4) %1)
  %7 = bitcast %"class.std::basic_istream"* %6 to i8**
  %8 = load i8*, i8** %7, align 8, !tbaa !5
  %9 = getelementptr i8, i8* %8, i64 -24
  %10 = bitcast i8* %9 to i64*
  %11 = load i64, i64* %10, align 8
  %12 = bitcast %"class.std::basic_istream"* %6 to i8*
  %13 = add nsw i64 %11, 32
  %14 = getelementptr inbounds i8, i8* %12, i64 %13
  %15 = bitcast i8* %14 to i32*
  %16 = load i32, i32* %15, align 8, !tbaa !8
  %17 = and i32 %16, 5
  %18 = icmp eq i32 %17, 0
  br i1 %18, label %19, label %152

19:                                               ; preds = %5, %24
  %20 = phi i64 [ %26, %24 ], [ 0, %5 ]
  %21 = phi i32 [ %27, %24 ], [ 0, %5 ]
  %22 = load i32, i32* %1, align 4, !tbaa !18
  switch i32 %22, label %24 [
    i32 -1, label %23
    i32 0, label %41
  ]

23:                                               ; preds = %19
  call void @llvm.lifetime.end.p0i8(i64 64, i8* nonnull %4) #9
  call void @llvm.lifetime.end.p0i8(i64 4, i8* nonnull %3) #9
  ret i32 0

24:                                               ; preds = %19
  %25 = getelementptr inbounds [16 x i32], [16 x i32]* %2, i64 0, i64 %20
  store i32 %22, i32* %25, align 4, !tbaa !18
  %26 = add nuw i64 %20, 1
  %27 = add nuw nsw i32 %21, 1
  %28 = call nonnull align 8 dereferenceable(16) %"class.std::basic_istream"* @_ZNSirsERi(%"class.std::basic_istream"* nonnull align 8 dereferenceable(16) @_ZSt3cin, i32* nonnull align 4 dereferenceable(4) %1)
  %29 = bitcast %"class.std::basic_istream"* %28 to i8**
  %30 = load i8*, i8** %29, align 8, !tbaa !5
  %31 = getelementptr i8, i8* %30, i64 -24
  %32 = bitcast i8* %31 to i64*
  %33 = load i64, i64* %32, align 8
  %34 = bitcast %"class.std::basic_istream"* %28 to i8*
  %35 = add nsw i64 %33, 32
  %36 = getelementptr inbounds i8, i8* %34, i64 %35
  %37 = bitcast i8* %36 to i32*
  %38 = load i32, i32* %37, align 8, !tbaa !8
  %39 = and i32 %38, 5
  %40 = icmp eq i32 %39, 0
  br i1 %40, label %19, label %44, !llvm.loop !19

41:                                               ; preds = %19
  %42 = trunc i64 %20 to i32
  %43 = icmp eq i32 %42, 0
  br i1 %43, label %152, label %44

44:                                               ; preds = %24, %41
  %45 = phi i32 [ %42, %41 ], [ %27, %24 ]
  %46 = zext i32 %45 to i64
  %47 = and i64 %46, 4294967288
  %48 = add nsw i64 %47, -8
  %49 = lshr exact i64 %48, 3
  %50 = add nuw nsw i64 %49, 1
  %51 = icmp ult i32 %45, 8
  %52 = and i64 %46, 4294967288
  %53 = and i64 %50, 1
  %54 = icmp eq i64 %48, 0
  %55 = and i64 %50, 4611686018427387902
  %56 = icmp eq i64 %53, 0
  %57 = icmp eq i64 %52, %46
  br label %58

58:                                               ; preds = %44, %148
  %59 = phi i64 [ 0, %44 ], [ %150, %148 ]
  %60 = phi i32 [ 0, %44 ], [ %149, %148 ]
  %61 = getelementptr inbounds [16 x i32], [16 x i32]* %2, i64 0, i64 %59
  %62 = load i32, i32* %61, align 4, !tbaa !18
  %63 = icmp eq i32 %62, 0
  br i1 %63, label %152, label %64

64:                                               ; preds = %58
  br i1 %51, label %134, label %65

65:                                               ; preds = %64
  %66 = insertelement <4 x i32> <i32 poison, i32 0, i32 0, i32 0>, i32 %60, i32 0
  %67 = insertelement <4 x i32> poison, i32 %62, i32 0
  %68 = shufflevector <4 x i32> %67, <4 x i32> poison, <4 x i32> zeroinitializer
  %69 = insertelement <4 x i32> poison, i32 %62, i32 0
  %70 = shufflevector <4 x i32> %69, <4 x i32> poison, <4 x i32> zeroinitializer
  br i1 %54, label %108, label %71

71:                                               ; preds = %65, %71
  %72 = phi i64 [ %105, %71 ], [ 0, %65 ]
  %73 = phi <4 x i32> [ %103, %71 ], [ %66, %65 ]
  %74 = phi <4 x i32> [ %104, %71 ], [ zeroinitializer, %65 ]
  %75 = phi i64 [ %106, %71 ], [ %55, %65 ]
  %76 = getelementptr inbounds [16 x i32], [16 x i32]* %2, i64 0, i64 %72
  %77 = bitcast i32* %76 to <4 x i32>*
  %78 = load <4 x i32>, <4 x i32>* %77, align 16, !tbaa !18
  %79 = getelementptr inbounds i32, i32* %76, i64 4
  %80 = bitcast i32* %79 to <4 x i32>*
  %81 = load <4 x i32>, <4 x i32>* %80, align 16, !tbaa !18
  %82 = shl nsw <4 x i32> %78, <i32 1, i32 1, i32 1, i32 1>
  %83 = shl nsw <4 x i32> %81, <i32 1, i32 1, i32 1, i32 1>
  %84 = icmp eq <4 x i32> %68, %82
  %85 = icmp eq <4 x i32> %70, %83
  %86 = zext <4 x i1> %84 to <4 x i32>
  %87 = zext <4 x i1> %85 to <4 x i32>
  %88 = add <4 x i32> %73, %86
  %89 = add <4 x i32> %74, %87
  %90 = or i64 %72, 8
  %91 = getelementptr inbounds [16 x i32], [16 x i32]* %2, i64 0, i64 %90
  %92 = bitcast i32* %91 to <4 x i32>*
  %93 = load <4 x i32>, <4 x i32>* %92, align 16, !tbaa !18
  %94 = getelementptr inbounds i32, i32* %91, i64 4
  %95 = bitcast i32* %94 to <4 x i32>*
  %96 = load <4 x i32>, <4 x i32>* %95, align 16, !tbaa !18
  %97 = shl nsw <4 x i32> %93, <i32 1, i32 1, i32 1, i32 1>
  %98 = shl nsw <4 x i32> %96, <i32 1, i32 1, i32 1, i32 1>
  %99 = icmp eq <4 x i32> %68, %97
  %100 = icmp eq <4 x i32> %70, %98
  %101 = zext <4 x i1> %99 to <4 x i32>
  %102 = zext <4 x i1> %100 to <4 x i32>
  %103 = add <4 x i32> %88, %101
  %104 = add <4 x i32> %89, %102
  %105 = add nuw i64 %72, 16
  %106 = add i64 %75, -2
  %107 = icmp eq i64 %106, 0
  br i1 %107, label %108, label %71, !llvm.loop !21

108:                                              ; preds = %71, %65
  %109 = phi <4 x i32> [ undef, %65 ], [ %103, %71 ]
  %110 = phi <4 x i32> [ undef, %65 ], [ %104, %71 ]
  %111 = phi i64 [ 0, %65 ], [ %105, %71 ]
  %112 = phi <4 x i32> [ %66, %65 ], [ %103, %71 ]
  %113 = phi <4 x i32> [ zeroinitializer, %65 ], [ %104, %71 ]
  br i1 %56, label %129, label %114

114:                                              ; preds = %108
  %115 = getelementptr inbounds [16 x i32], [16 x i32]* %2, i64 0, i64 %111
  %116 = getelementptr inbounds i32, i32* %115, i64 4
  %117 = bitcast i32* %116 to <4 x i32>*
  %118 = load <4 x i32>, <4 x i32>* %117, align 16, !tbaa !18
  %119 = shl nsw <4 x i32> %118, <i32 1, i32 1, i32 1, i32 1>
  %120 = icmp eq <4 x i32> %70, %119
  %121 = zext <4 x i1> %120 to <4 x i32>
  %122 = add <4 x i32> %113, %121
  %123 = bitcast i32* %115 to <4 x i32>*
  %124 = load <4 x i32>, <4 x i32>* %123, align 16, !tbaa !18
  %125 = shl nsw <4 x i32> %124, <i32 1, i32 1, i32 1, i32 1>
  %126 = icmp eq <4 x i32> %68, %125
  %127 = zext <4 x i1> %126 to <4 x i32>
  %128 = add <4 x i32> %112, %127
  br label %129

129:                                              ; preds = %108, %114
  %130 = phi <4 x i32> [ %109, %108 ], [ %128, %114 ]
  %131 = phi <4 x i32> [ %110, %108 ], [ %122, %114 ]
  %132 = add <4 x i32> %131, %130
  %133 = call i32 @llvm.vector.reduce.add.v4i32(<4 x i32> %132)
  br i1 %57, label %148, label %134

134:                                              ; preds = %64, %129
  %135 = phi i64 [ 0, %64 ], [ %52, %129 ]
  %136 = phi i32 [ %60, %64 ], [ %133, %129 ]
  br label %137

137:                                              ; preds = %134, %137
  %138 = phi i64 [ %146, %137 ], [ %135, %134 ]
  %139 = phi i32 [ %145, %137 ], [ %136, %134 ]
  %140 = getelementptr inbounds [16 x i32], [16 x i32]* %2, i64 0, i64 %138
  %141 = load i32, i32* %140, align 4, !tbaa !18
  %142 = shl nsw i32 %141, 1
  %143 = icmp eq i32 %62, %142
  %144 = zext i1 %143 to i32
  %145 = add nsw i32 %139, %144
  %146 = add nuw nsw i64 %138, 1
  %147 = icmp eq i64 %146, %46
  br i1 %147, label %148, label %137, !llvm.loop !23

148:                                              ; preds = %137, %129
  %149 = phi i32 [ %133, %129 ], [ %145, %137 ]
  %150 = add nuw nsw i64 %59, 1
  %151 = icmp eq i64 %150, %46
  br i1 %151, label %152, label %58, !llvm.loop !25

152:                                              ; preds = %148, %58, %5, %41
  %153 = phi i32 [ 0, %41 ], [ 0, %5 ], [ %60, %58 ], [ %149, %148 ]
  %154 = call nonnull align 8 dereferenceable(8) %"class.std::basic_ostream"* @_ZNSolsEi(%"class.std::basic_ostream"* nonnull align 8 dereferenceable(8) @_ZSt4cout, i32 %153)
  %155 = bitcast %"class.std::basic_ostream"* %154 to i8**
  %156 = load i8*, i8** %155, align 8, !tbaa !5
  %157 = getelementptr i8, i8* %156, i64 -24
  %158 = bitcast i8* %157 to i64*
  %159 = load i64, i64* %158, align 8
  %160 = bitcast %"class.std::basic_ostream"* %154 to i8*
  %161 = add nsw i64 %159, 240
  %162 = getelementptr inbounds i8, i8* %160, i64 %161
  %163 = bitcast i8* %162 to %"class.std::ctype"**
  %164 = load %"class.std::ctype"*, %"class.std::ctype"** %163, align 8, !tbaa !26
  %165 = icmp eq %"class.std::ctype"* %164, null
  br i1 %165, label %166, label %167

166:                                              ; preds = %152
  call void @_ZSt16__throw_bad_castv() #10
  unreachable

167:                                              ; preds = %152
  %168 = getelementptr inbounds %"class.std::ctype", %"class.std::ctype"* %164, i64 0, i32 8
  %169 = load i8, i8* %168, align 8, !tbaa !29
  %170 = icmp eq i8 %169, 0
  br i1 %170, label %174, label %171

171:                                              ; preds = %167
  %172 = getelementptr inbounds %"class.std::ctype", %"class.std::ctype"* %164, i64 0, i32 9, i64 10
  %173 = load i8, i8* %172, align 1, !tbaa !31
  br label %180

174:                                              ; preds = %167
  call void @_ZNKSt5ctypeIcE13_M_widen_initEv(%"class.std::ctype"* nonnull align 8 dereferenceable(570) %164)
  %175 = bitcast %"class.std::ctype"* %164 to i8 (%"class.std::ctype"*, i8)***
  %176 = load i8 (%"class.std::ctype"*, i8)**, i8 (%"class.std::ctype"*, i8)*** %175, align 8, !tbaa !5
  %177 = getelementptr inbounds i8 (%"class.std::ctype"*, i8)*, i8 (%"class.std::ctype"*, i8)** %176, i64 6
  %178 = load i8 (%"class.std::ctype"*, i8)*, i8 (%"class.std::ctype"*, i8)** %177, align 8
  %179 = call signext i8 %178(%"class.std::ctype"* nonnull align 8 dereferenceable(570) %164, i8 signext 10)
  br label %180

180:                                              ; preds = %171, %174
  %181 = phi i8 [ %173, %171 ], [ %179, %174 ]
  %182 = call nonnull align 8 dereferenceable(8) %"class.std::basic_ostream"* @_ZNSo3putEc(%"class.std::basic_ostream"* nonnull align 8 dereferenceable(8) %154, i8 signext %181)
  %183 = call nonnull align 8 dereferenceable(8) %"class.std::basic_ostream"* @_ZNSo5flushEv(%"class.std::basic_ostream"* nonnull align 8 dereferenceable(8) %182)
  br label %5, !llvm.loop !32
}

; Function Attrs: argmemonly mustprogress nofree nosync nounwind willreturn
declare void @llvm.lifetime.start.p0i8(i64 immarg, i8* nocapture) #4

; Function Attrs: argmemonly mustprogress nofree nounwind willreturn writeonly
declare void @llvm.memset.p0i8.i64(i8* nocapture writeonly, i8, i64, i1 immarg) #5

declare nonnull align 8 dereferenceable(16) %"class.std::basic_istream"* @_ZNSirsERi(%"class.std::basic_istream"* nonnull align 8 dereferenceable(16), i32* nonnull align 4 dereferenceable(4)) local_unnamed_addr #0

declare nonnull align 8 dereferenceable(8) %"class.std::basic_ostream"* @_ZNSolsEi(%"class.std::basic_ostream"* nonnull align 8 dereferenceable(8), i32) local_unnamed_addr #0

; Function Attrs: argmemonly mustprogress nofree nosync nounwind willreturn
declare void @llvm.lifetime.end.p0i8(i64 immarg, i8* nocapture) #4

declare nonnull align 8 dereferenceable(8) %"class.std::basic_ostream"* @_ZNSo3putEc(%"class.std::basic_ostream"* nonnull align 8 dereferenceable(8), i8 signext) local_unnamed_addr #0

declare nonnull align 8 dereferenceable(8) %"class.std::basic_ostream"* @_ZNSo5flushEv(%"class.std::basic_ostream"* nonnull align 8 dereferenceable(8)) local_unnamed_addr #0

; Function Attrs: noreturn
declare void @_ZSt16__throw_bad_castv() local_unnamed_addr #6

declare void @_ZNKSt5ctypeIcE13_M_widen_initEv(%"class.std::ctype"* nonnull align 8 dereferenceable(570)) local_unnamed_addr #0

; Function Attrs: sspstrong uwtable
define internal void @_GLOBAL__sub_I_281.cpp() #7 section ".text.startup" {
  tail call void @_ZNSt8ios_base4InitC1Ev(%"class.std::ios_base::Init"* nonnull align 1 dereferenceable(1) @_ZStL8__ioinit)
  %1 = tail call i32 @__cxa_atexit(void (i8*)* bitcast (void (%"class.std::ios_base::Init"*)* @_ZNSt8ios_base4InitD1Ev to void (i8*)*), i8* getelementptr inbounds (%"class.std::ios_base::Init", %"class.std::ios_base::Init"* @_ZStL8__ioinit, i64 0, i32 0), i8* nonnull @__dso_handle) #9
  ret void
}

; Function Attrs: nofree nosync nounwind readnone willreturn
declare i32 @llvm.vector.reduce.add.v4i32(<4 x i32>) #8


!llvm.module.flags = !{!0, !1, !2, !3}
!llvm.ident = !{!4}

!0 = !{i32 1, !"wchar_size", i32 4}
!1 = !{i32 7, !"PIC Level", i32 2}
!2 = !{i32 7, !"PIE Level", i32 2}
!3 = !{i32 7, !"uwtable", i32 1}
!4 = !{!"clang version 13.0.0"}
!5 = !{!6, !6, i64 0}
!6 = !{!"vtable pointer", !7, i64 0}
!7 = !{!"Simple C++ TBAA"}
!8 = !{!9, !13, i64 32}
!9 = !{!"_ZTSSt8ios_base", !10, i64 8, !10, i64 16, !12, i64 24, !13, i64 28, !13, i64 32, !14, i64 40, !15, i64 48, !11, i64 64, !16, i64 192, !14, i64 200, !17, i64 208}
!10 = !{!"long", !11, i64 0}
!11 = !{!"omnipotent char", !7, i64 0}
!12 = !{!"_ZTSSt13_Ios_Fmtflags", !11, i64 0}
!13 = !{!"_ZTSSt12_Ios_Iostate", !11, i64 0}
!14 = !{!"any pointer", !11, i64 0}
!15 = !{!"_ZTSNSt8ios_base6_WordsE", !14, i64 0, !10, i64 8}
!16 = !{!"int", !11, i64 0}
!17 = !{!"_ZTSSt6locale", !14, i64 0}
!18 = !{!16, !16, i64 0}
!19 = distinct !{!19, !20}
!20 = !{!"llvm.loop.mustprogress"}
!21 = distinct !{!21, !20, !22}
!22 = !{!"llvm.loop.isvectorized", i32 1}
!23 = distinct !{!23, !20, !24, !22}
!24 = !{!"llvm.loop.unroll.runtime.disable"}
!25 = distinct !{!25, !20}
!26 = !{!27, !14, i64 240}
!27 = !{!"_ZTSSt9basic_iosIcSt11char_traitsIcEE", !14, i64 216, !11, i64 224, !28, i64 225, !14, i64 232, !14, i64 240, !14, i64 248, !14, i64 256}
!28 = !{!"bool", !11, i64 0}
!29 = !{!30, !11, i64 56}
!30 = !{!"_ZTSSt5ctypeIcE", !14, i64 16, !28, i64 24, !14, i64 32, !14, i64 40, !14, i64 48, !11, i64 56, !11, i64 57, !11, i64 313, !11, i64 569}
!31 = !{!11, !11, i64 0}
!32 = distinct !{!32, !20}
